
b4:     file format elf32-i386

Contents of section .interp:
 0154 2f6c6962 2f6c642d 6c696e75 782e736f  /lib/ld-linux.so
 0164 2e3200                               .2.             
Contents of section .note.ABI-tag:
 0168 04000000 10000000 01000000 474e5500  ............GNU.
 0178 00000000 03000000 02000000 00000000  ................
Contents of section .note.gnu.build-id:
 0188 04000000 14000000 03000000 474e5500  ............GNU.
 0198 82b08783 333ab009 ae5a01de 04f42a13  ....3:...Z....*.
 01a8 1d0ae6be                             ....            
Contents of section .gnu.hash:
 01ac 02000000 0f000000 01000000 05000000  ................
 01bc 00200020 00000000 0f000000 ad4be3c0  . . .........K..
Contents of section .dynsym:
 01cc 00000000 00000000 00000000 00000000  ................
 01dc b8000000 00000000 00000000 20000000  ............ ...
 01ec 44000000 00000000 00000000 12000000  D...............
 01fc 4a000000 00000000 00000000 12000000  J...............
 020c 71000000 00000000 00000000 12000000  q...............
 021c 50000000 00000000 00000000 22000000  P..........."...
 022c 32000000 00000000 00000000 12000000  2...............
 023c d4000000 00000000 00000000 20000000  ............ ...
 024c 27000000 00000000 00000000 12000000  '...............
 025c 5f000000 00000000 00000000 12000000  _...............
 026c 37000000 00000000 00000000 11000000  7...............
 027c 2c000000 00000000 00000000 12000000  ,...............
 028c 1a000000 00000000 00000000 12000000  ................
 029c e3000000 00000000 00000000 20000000  ............ ...
 02ac 3d000000 00000000 00000000 12000000  =...............
 02bc 0b000000 0c090000 04000000 11001000  ................
Contents of section .dynstr:
 02cc 006c6962 632e736f 2e36005f 494f5f73  .libc.so.6._IO_s
 02dc 7464696e 5f757365 64005f5f 7072696e  tdin_used.__prin
 02ec 74665f63 686b0065 78697400 666f7065  tf_chk.exit.fope
 02fc 6e007075 74730073 7464696e 00737472  n.puts.stdin.str
 030c 746f6c00 66676574 7300736c 65657000  tol.fgets.sleep.
 031c 5f5f6378 615f6669 6e616c69 7a65005f  __cxa_finalize._
 032c 5f6c6962 635f7374 6172745f 6d61696e  _libc_start_main
 033c 005f5f73 7461636b 5f63686b 5f666169  .__stack_chk_fai
 034c 6c00474c 4942435f 322e332e 3400474c  l.GLIBC_2.3.4.GL
 035c 4942435f 322e3100 474c4942 435f322e  IBC_2.1.GLIBC_2.
 036c 312e3300 474c4942 435f322e 3400474c  1.3.GLIBC_2.4.GL
 037c 4942435f 322e3000 5f49544d 5f646572  IBC_2.0._ITM_der
 038c 65676973 74657254 4d436c6f 6e655461  egisterTMCloneTa
 039c 626c6500 5f5f676d 6f6e5f73 74617274  ble.__gmon_start
 03ac 5f5f005f 49544d5f 72656769 73746572  __._ITM_register
 03bc 544d436c 6f6e6554 61626c65 00        TMCloneTable.   
Contents of section .gnu.version:
 03ca 00000000 02000200 03000400 02000000  ................
 03da 02000200 02000500 06000000 02000100  ................
Contents of section .gnu.version_r:
 03ec 01000500 01000000 10000000 00000000  ................
 03fc 74196909 00000600 82000000 10000000  t.i.............
 040c 1169690d 00000500 8e000000 10000000  .ii.............
 041c 731f6909 00000400 98000000 10000000  s.i.............
 042c 1469690d 00000300 a4000000 10000000  .ii.............
 043c 1069690d 00000200 ae000000 00000000  .ii.............
Contents of section .rel.dyn:
 044c b81e0000 08000000 bc1e0000 08000000  ................
 045c f81f0000 08000000 04200000 08000000  ......... ......
 046c e81f0000 06010000 ec1f0000 06050000  ................
 047c f01f0000 06070000 f41f0000 060a0000  ................
 048c fc1f0000 060d0000                    ........        
Contents of section .rel.plt:
 0494 c41f0000 07020000 c81f0000 07030000  ................
 04a4 cc1f0000 07040000 d01f0000 07060000  ................
 04b4 d41f0000 07080000 d81f0000 07090000  ................
 04c4 dc1f0000 070b0000 e01f0000 070c0000  ................
 04d4 e41f0000 070e0000                    ........        
Contents of section .init:
 04dc 5383ec08 e80b0100 0081c3d3 1a00008b  S...............
 04ec 83380000 0085c074 05e8ae00 000083c4  .8.....t........
 04fc 085bc3                               .[.             
Contents of section .plt:
 0500 ffb30400 0000ffa3 08000000 00000000  ................
 0510 ffa30c00 00006800 000000e9 e0ffffff  ......h.........
 0520 ffa31000 00006808 000000e9 d0ffffff  ......h.........
 0530 ffa31400 00006810 000000e9 c0ffffff  ......h.........
 0540 ffa31800 00006818 000000e9 b0ffffff  ......h.........
 0550 ffa31c00 00006820 000000e9 a0ffffff  ......h ........
 0560 ffa32000 00006828 000000e9 90ffffff  .. ...h(........
 0570 ffa32400 00006830 000000e9 80ffffff  ..$...h0........
 0580 ffa32800 00006838 000000e9 70ffffff  ..(...h8....p...
 0590 ffa32c00 00006840 000000e9 60ffffff  ..,...h@....`...
Contents of section .plt.got:
 05a0 ffa33400 00006690 ffa33800 00006690  ..4...f...8...f.
Contents of section .text:
 05b0 31ed5e89 e183e4f0 505452e8 22000000  1.^.....PTR."...
 05c0 81c3f819 00008d83 18e9ffff 508d83b8  ............P...
 05d0 e8ffff50 5156ffb3 40000000 e87fffff  ...PQV..@.......
 05e0 fff48b1c 24c36690 66906690 66906690  ....$.f.f.f.f.f.
 05f0 8b1c24c3 66906690 66906690 66906690  ..$.f.f.f.f.f.f.
 0600 e8e40000 0081c2b3 1900008d 8a640000  .............d..
 0610 008d8264 00000039 c8741d8b 82300000  ...d...9.t...0..
 0620 0085c074 135589e5 83ec1451 ffd083c4  ...t.U.....Q....
 0630 10c9c390 8d742600 f3c38db6 00000000  .....t&.........
 0640 e8a40000 0081c273 19000055 8d8a6400  .......s...U..d.
 0650 00008d82 64000000 29c889e5 53c1f802  ....d...)...S...
 0660 89c383ec 04c1eb1f 01d8d1f8 74148b92  ............t...
 0670 44000000 85d2740a 83ec0850 51ffd283  D.....t....PQ...
 0680 c4108b5d fcc9c389 f68dbc27 00000000  ...].......'....
 0690 5589e553 e857ffff ff81c31f 19000083  U..S.W..........
 06a0 ec0480bb 64000000 0075278b 83340000  ....d....u'..4..
 06b0 0085c074 1183ec0c ffb34c00 0000e8dd  ...t......L.....
 06c0 feffff83 c410e835 ffffffc6 83640000  .......5.....d..
 06d0 00018b5d fcc9c389 f68dbc27 00000000  ...].......'....
 06e0 5589e55d e957ffff ff8b1424 c35383ec  U..].W.....$.S..
 06f0 14e8fafe ffff81c3 c2180000 6a01e81d  ............j...
 0700 feffff8d 8358e9ff ff890424 e82ffeff  .....X.....$./..
 0710 ffc70424 01000000 e833feff ff5383ec  ...$.....3...S..
 0720 14e8cafe ffff81c3 92180000 6a01e8ed  ............j...
 0730 fdffff8d 8366e9ff ff890424 e8fffdff  .....f.....$....
 0740 ff83c418 5bc38d4c 240483e4 f0ff71fc  ....[..L$.....q.
 0750 5589e557 56535181 ec280200 00e88efe  U..WVSQ..(......
 0760 ffff81c3 56180000 8b018b51 04658b0d  ....V......Q.e..
 0770 14000000 894de431 c983f802 74338b83  .....M.1....t3..
 0780 3c000000 8b38be01 0000008d 83600000  <....8.......`..
 0790 008985d4 fdffff8b 833c0000 008985d0  .........<......
 07a0 fdffff8d 8371e9ff ff8985cc fdffffeb  .....q..........
 07b0 3983ec08 8d836fe9 ffff50ff 7204e8ad  9.....o...P.r...
 07c0 fdffff89 c783c410 ebbc83ec 0456ffb5  .............V..
 07d0 ccfdffff 6a01e8a5 fdffff83 c410eb14  ....j...........
 07e0 e808ffff ff83fe05 7f578b85 d0fdffff  .........W......
 07f0 393874d6 83ec0457 68000200 008d85e4  98t....Wh.......
 0800 fdffff50 e807fdff ff83c410 85c074d5  ...P..........t.
 0810 83ec046a 0a6a008d 85e4fdff ff50e86d  ...j.j.......P.m
 0820 fdffff01 f083c410 8b95d4fd ffff3902  ..............9.
 0830 75ae83ad d4fdffff 0483c601 83fe057e  u..............~
 0840 a9e8d7fe ffffb800 0000008b 4de46533  ............M.e3
 0850 0d140000 00750c8d 65f0595b 5e5f5d8d  .....u..e.Y[^_].
 0860 61fcc3e8 78000000 66906690 66906690  a...x...f.f.f.f.
 0870 55575653 e877fdff ff81c33f 17000083  UWVS.w.....?....
 0880 ec0c8b6c 24288db3 04ffffff e84bfcff  ...l$(.......K..
 0890 ff8d8300 ffffff29 c6c1fe02 85f67425  .......)......t%
 08a0 31ff8db6 00000000 83ec0455 ff74242c  1..........U.t$,
 08b0 ff74242c ff94bb00 ffffff83 c70183c4  .t$,............
 08c0 1039fe75 e383c40c 5b5e5f5d c38d7600  .9.u....[^_]..v.
 08d0 f3c36690 66906690 66906690 66906690  ..f.f.f.f.f.f.f.
 08e0 53e80afd ffff81c3 d2160000 83ec08e8  S...............
 08f0 3cfcffff                             <...            
Contents of section .fini:
 08f4 5383ec08 e8f3fcff ff81c3bb 16000083  S...............
 0904 c4085bc3                             ..[.            
Contents of section .rodata:
 0908 03000000 01000200 424f4d42 20455850  ........BOMB EXP
 0918 4c4f4445 44007375 63636573 73210072  LODED.success!.r
 0928 00696e70 75742025 6420286f 66203529  .input %d (of 5)
 0938 3f2000                               ? .             
Contents of section .eh_frame_hdr:
 093c 011b033b 48000000 08000000 c4fbffff  ...;H...........
 094c 64000000 64fcffff 88000000 b1fdffff  d...d...........
 095c 9c000000 e1fdffff b8000000 0afeffff  ................
 096c dc000000 34ffffff 24010000 94ffffff  ....4...$.......
 097c 70010000 a4ffffff 84010000           p...........    
Contents of section .eh_frame:
 0988 14000000 00000000 017a5200 017c0801  .........zR..|..
 0998 1b0c0404 88010000 20000000 1c000000  ........ .......
 09a8 58fbffff a0000000 000e0846 0e0c4a0f  X..........F..J.
 09b8 0b740478 003f1a3b 2a322422 10000000  .t.x.?.;*2$"....
 09c8 40000000 d4fbffff 10000000 00000000  @...............
 09d8 18000000 54000000 0dfdffff 30000000  ....T.......0...
 09e8 00410e08 8302430e 1c4d0e20 20000000  .A....C..M.  ...
 09f8 70000000 21fdffff 29000000 00410e08  p...!...)....A..
 0a08 8302430e 1c4d0e20 560e0841 c30e0400  ..C..M. V..A....
 0a18 44000000 94000000 26fdffff 22010000  D.......&..."...
 0a28 00440c01 00471005 02750046 0f037570  .D...G...u.F..up
 0a38 06100702 757c1006 02757810 03027574  ....u|...ux...ut
 0a48 0304010a c10c0100 41c341c6 41c741c5  ........A.A.A.A.
 0a58 430c0404 410b0000 48000000 dc000000  C...A...H.......
 0a68 08feffff 5d000000 00410e08 8502410e  ....]....A....A.
 0a78 0c870341 0e108604 410e1483 054e0e20  ...A....A....N. 
 0a88 690e2441 0e28440e 2c440e30 4d0e2047  i.$A.(D.,D.0M. G
 0a98 0e1441c3 0e1041c6 0e0c41c7 0e0841c5  ..A...A...A...A.
 0aa8 0e040000 10000000 28010000 1cfeffff  ........(.......
 0ab8 02000000 00000000 18000000 3c010000  ............<...
 0ac8 18feffff 14000000 00410e08 83024e0e  .........A....N.
 0ad8 10000000 00000000                    ........        
Contents of section .init_array:
 1eb8 e0060000                             ....            
Contents of section .fini_array:
 1ebc 90060000                             ....            
Contents of section .dynamic:
 1ec0 01000000 01000000 0c000000 dc040000  ................
 1ed0 0d000000 f4080000 19000000 b81e0000  ................
 1ee0 1b000000 04000000 1a000000 bc1e0000  ................
 1ef0 1c000000 04000000 f5feff6f ac010000  ...........o....
 1f00 05000000 cc020000 06000000 cc010000  ................
 1f10 0a000000 fd000000 0b000000 10000000  ................
 1f20 15000000 00000000 03000000 b81f0000  ................
 1f30 02000000 48000000 14000000 11000000  ....H...........
 1f40 17000000 94040000 11000000 4c040000  ............L...
 1f50 12000000 48000000 13000000 08000000  ....H...........
 1f60 1e000000 08000000 fbffff6f 01000008  ...........o....
 1f70 feffff6f ec030000 ffffff6f 01000000  ...o.......o....
 1f80 f0ffff6f ca030000 faffff6f 04000000  ...o.......o....
 1f90 00000000 00000000 00000000 00000000  ................
 1fa0 00000000 00000000 00000000 00000000  ................
 1fb0 00000000 00000000                    ........        
Contents of section .got:
 1fb8 c01e0000 00000000 00000000 16050000  ................
 1fc8 26050000 36050000 46050000 56050000  &...6...F...V...
 1fd8 66050000 76050000 86050000 96050000  f...v...........
 1fe8 00000000 00000000 00000000 00000000  ................
 1ff8 46070000 00000000                    F.......        
Contents of section .data:
 2000 00000000 04200000 aec40100 926a0d00  ..... .......j..
 2010 34ca0400 886a0600 89bc0100           4....j......    
Contents of section .comment:
 0000 4743433a 20285562 756e7475 20372e33  GCC: (Ubuntu 7.3
 0010 2e302d32 37756275 6e747531 7e31382e  .0-27ubuntu1~18.
 0020 30342920 372e332e 3000               04) 7.3.0.      

Disassembly of section .init:

000004dc <_init>:
 4dc:	53                   	push   %ebx
 4dd:	83 ec 08             	sub    $0x8,%esp
 4e0:	e8 0b 01 00 00       	call   5f0 <__x86.get_pc_thunk.bx>
 4e5:	81 c3 d3 1a 00 00    	add    $0x1ad3,%ebx
 4eb:	8b 83 38 00 00 00    	mov    0x38(%ebx),%eax
 4f1:	85 c0                	test   %eax,%eax
 4f3:	74 05                	je     4fa <_init+0x1e>
 4f5:	e8 ae 00 00 00       	call   5a8 <__gmon_start__@plt>
 4fa:	83 c4 08             	add    $0x8,%esp
 4fd:	5b                   	pop    %ebx
 4fe:	c3                   	ret    

Disassembly of section .plt:

00000500 <.plt>:
 500:	ff b3 04 00 00 00    	pushl  0x4(%ebx)
 506:	ff a3 08 00 00 00    	jmp    *0x8(%ebx)
 50c:	00 00                	add    %al,(%eax)
	...

00000510 <fgets@plt>:
 510:	ff a3 0c 00 00 00    	jmp    *0xc(%ebx)
 516:	68 00 00 00 00       	push   $0x0
 51b:	e9 e0 ff ff ff       	jmp    500 <.plt>

00000520 <sleep@plt>:
 520:	ff a3 10 00 00 00    	jmp    *0x10(%ebx)
 526:	68 08 00 00 00       	push   $0x8
 52b:	e9 d0 ff ff ff       	jmp    500 <.plt>

00000530 <__stack_chk_fail@plt>:
 530:	ff a3 14 00 00 00    	jmp    *0x14(%ebx)
 536:	68 10 00 00 00       	push   $0x10
 53b:	e9 c0 ff ff ff       	jmp    500 <.plt>

00000540 <puts@plt>:
 540:	ff a3 18 00 00 00    	jmp    *0x18(%ebx)
 546:	68 18 00 00 00       	push   $0x18
 54b:	e9 b0 ff ff ff       	jmp    500 <.plt>

00000550 <exit@plt>:
 550:	ff a3 1c 00 00 00    	jmp    *0x1c(%ebx)
 556:	68 20 00 00 00       	push   $0x20
 55b:	e9 a0 ff ff ff       	jmp    500 <.plt>

00000560 <__libc_start_main@plt>:
 560:	ff a3 20 00 00 00    	jmp    *0x20(%ebx)
 566:	68 28 00 00 00       	push   $0x28
 56b:	e9 90 ff ff ff       	jmp    500 <.plt>

00000570 <fopen@plt>:
 570:	ff a3 24 00 00 00    	jmp    *0x24(%ebx)
 576:	68 30 00 00 00       	push   $0x30
 57b:	e9 80 ff ff ff       	jmp    500 <.plt>

00000580 <__printf_chk@plt>:
 580:	ff a3 28 00 00 00    	jmp    *0x28(%ebx)
 586:	68 38 00 00 00       	push   $0x38
 58b:	e9 70 ff ff ff       	jmp    500 <.plt>

00000590 <strtol@plt>:
 590:	ff a3 2c 00 00 00    	jmp    *0x2c(%ebx)
 596:	68 40 00 00 00       	push   $0x40
 59b:	e9 60 ff ff ff       	jmp    500 <.plt>

Disassembly of section .plt.got:

000005a0 <__cxa_finalize@plt>:
 5a0:	ff a3 34 00 00 00    	jmp    *0x34(%ebx)
 5a6:	66 90                	xchg   %ax,%ax

000005a8 <__gmon_start__@plt>:
 5a8:	ff a3 38 00 00 00    	jmp    *0x38(%ebx)
 5ae:	66 90                	xchg   %ax,%ax

Disassembly of section .text:

000005b0 <_start>:
 5b0:	31 ed                	xor    %ebp,%ebp
 5b2:	5e                   	pop    %esi
 5b3:	89 e1                	mov    %esp,%ecx
 5b5:	83 e4 f0             	and    $0xfffffff0,%esp
 5b8:	50                   	push   %eax
 5b9:	54                   	push   %esp
 5ba:	52                   	push   %edx
 5bb:	e8 22 00 00 00       	call   5e2 <_start+0x32>
 5c0:	81 c3 f8 19 00 00    	add    $0x19f8,%ebx
 5c6:	8d 83 18 e9 ff ff    	lea    -0x16e8(%ebx),%eax
 5cc:	50                   	push   %eax
 5cd:	8d 83 b8 e8 ff ff    	lea    -0x1748(%ebx),%eax
 5d3:	50                   	push   %eax
 5d4:	51                   	push   %ecx
 5d5:	56                   	push   %esi
 5d6:	ff b3 40 00 00 00    	pushl  0x40(%ebx)
 5dc:	e8 7f ff ff ff       	call   560 <__libc_start_main@plt>
 5e1:	f4                   	hlt    
 5e2:	8b 1c 24             	mov    (%esp),%ebx
 5e5:	c3                   	ret    
 5e6:	66 90                	xchg   %ax,%ax
 5e8:	66 90                	xchg   %ax,%ax
 5ea:	66 90                	xchg   %ax,%ax
 5ec:	66 90                	xchg   %ax,%ax
 5ee:	66 90                	xchg   %ax,%ax

000005f0 <__x86.get_pc_thunk.bx>:
 5f0:	8b 1c 24             	mov    (%esp),%ebx
 5f3:	c3                   	ret    
 5f4:	66 90                	xchg   %ax,%ax
 5f6:	66 90                	xchg   %ax,%ax
 5f8:	66 90                	xchg   %ax,%ax
 5fa:	66 90                	xchg   %ax,%ax
 5fc:	66 90                	xchg   %ax,%ax
 5fe:	66 90                	xchg   %ax,%ax

00000600 <deregister_tm_clones>:
 600:	e8 e4 00 00 00       	call   6e9 <__x86.get_pc_thunk.dx>
 605:	81 c2 b3 19 00 00    	add    $0x19b3,%edx
 60b:	8d 8a 64 00 00 00    	lea    0x64(%edx),%ecx
 611:	8d 82 64 00 00 00    	lea    0x64(%edx),%eax
 617:	39 c8                	cmp    %ecx,%eax
 619:	74 1d                	je     638 <deregister_tm_clones+0x38>
 61b:	8b 82 30 00 00 00    	mov    0x30(%edx),%eax
 621:	85 c0                	test   %eax,%eax
 623:	74 13                	je     638 <deregister_tm_clones+0x38>
 625:	55                   	push   %ebp
 626:	89 e5                	mov    %esp,%ebp
 628:	83 ec 14             	sub    $0x14,%esp
 62b:	51                   	push   %ecx
 62c:	ff d0                	call   *%eax
 62e:	83 c4 10             	add    $0x10,%esp
 631:	c9                   	leave  
 632:	c3                   	ret    
 633:	90                   	nop
 634:	8d 74 26 00          	lea    0x0(%esi,%eiz,1),%esi
 638:	f3 c3                	repz ret 
 63a:	8d b6 00 00 00 00    	lea    0x0(%esi),%esi

00000640 <register_tm_clones>:
 640:	e8 a4 00 00 00       	call   6e9 <__x86.get_pc_thunk.dx>
 645:	81 c2 73 19 00 00    	add    $0x1973,%edx
 64b:	55                   	push   %ebp
 64c:	8d 8a 64 00 00 00    	lea    0x64(%edx),%ecx
 652:	8d 82 64 00 00 00    	lea    0x64(%edx),%eax
 658:	29 c8                	sub    %ecx,%eax
 65a:	89 e5                	mov    %esp,%ebp
 65c:	53                   	push   %ebx
 65d:	c1 f8 02             	sar    $0x2,%eax
 660:	89 c3                	mov    %eax,%ebx
 662:	83 ec 04             	sub    $0x4,%esp
 665:	c1 eb 1f             	shr    $0x1f,%ebx
 668:	01 d8                	add    %ebx,%eax
 66a:	d1 f8                	sar    %eax
 66c:	74 14                	je     682 <register_tm_clones+0x42>
 66e:	8b 92 44 00 00 00    	mov    0x44(%edx),%edx
 674:	85 d2                	test   %edx,%edx
 676:	74 0a                	je     682 <register_tm_clones+0x42>
 678:	83 ec 08             	sub    $0x8,%esp
 67b:	50                   	push   %eax
 67c:	51                   	push   %ecx
 67d:	ff d2                	call   *%edx
 67f:	83 c4 10             	add    $0x10,%esp
 682:	8b 5d fc             	mov    -0x4(%ebp),%ebx
 685:	c9                   	leave  
 686:	c3                   	ret    
 687:	89 f6                	mov    %esi,%esi
 689:	8d bc 27 00 00 00 00 	lea    0x0(%edi,%eiz,1),%edi

00000690 <__do_global_dtors_aux>:
 690:	55                   	push   %ebp
 691:	89 e5                	mov    %esp,%ebp
 693:	53                   	push   %ebx
 694:	e8 57 ff ff ff       	call   5f0 <__x86.get_pc_thunk.bx>
 699:	81 c3 1f 19 00 00    	add    $0x191f,%ebx
 69f:	83 ec 04             	sub    $0x4,%esp
 6a2:	80 bb 64 00 00 00 00 	cmpb   $0x0,0x64(%ebx)
 6a9:	75 27                	jne    6d2 <__do_global_dtors_aux+0x42>
 6ab:	8b 83 34 00 00 00    	mov    0x34(%ebx),%eax
 6b1:	85 c0                	test   %eax,%eax
 6b3:	74 11                	je     6c6 <__do_global_dtors_aux+0x36>
 6b5:	83 ec 0c             	sub    $0xc,%esp
 6b8:	ff b3 4c 00 00 00    	pushl  0x4c(%ebx)
 6be:	e8 dd fe ff ff       	call   5a0 <__cxa_finalize@plt>
 6c3:	83 c4 10             	add    $0x10,%esp
 6c6:	e8 35 ff ff ff       	call   600 <deregister_tm_clones>
 6cb:	c6 83 64 00 00 00 01 	movb   $0x1,0x64(%ebx)
 6d2:	8b 5d fc             	mov    -0x4(%ebp),%ebx
 6d5:	c9                   	leave  
 6d6:	c3                   	ret    
 6d7:	89 f6                	mov    %esi,%esi
 6d9:	8d bc 27 00 00 00 00 	lea    0x0(%edi,%eiz,1),%edi

000006e0 <frame_dummy>:
 6e0:	55                   	push   %ebp
 6e1:	89 e5                	mov    %esp,%ebp
 6e3:	5d                   	pop    %ebp
 6e4:	e9 57 ff ff ff       	jmp    640 <register_tm_clones>

000006e9 <__x86.get_pc_thunk.dx>:
 6e9:	8b 14 24             	mov    (%esp),%edx
 6ec:	c3                   	ret    

000006ed <bomb>:
 6ed:	53                   	push   %ebx
 6ee:	83 ec 14             	sub    $0x14,%esp
 6f1:	e8 fa fe ff ff       	call   5f0 <__x86.get_pc_thunk.bx>
 6f6:	81 c3 c2 18 00 00    	add    $0x18c2,%ebx
 6fc:	6a 01                	push   $0x1
 6fe:	e8 1d fe ff ff       	call   520 <sleep@plt>
 703:	8d 83 58 e9 ff ff    	lea    -0x16a8(%ebx),%eax
 709:	89 04 24             	mov    %eax,(%esp)
 70c:	e8 2f fe ff ff       	call   540 <puts@plt>
 711:	c7 04 24 01 00 00 00 	movl   $0x1,(%esp)
 718:	e8 33 fe ff ff       	call   550 <exit@plt>

0000071d <success>:
 71d:	53                   	push   %ebx
 71e:	83 ec 14             	sub    $0x14,%esp
 721:	e8 ca fe ff ff       	call   5f0 <__x86.get_pc_thunk.bx>
 726:	81 c3 92 18 00 00    	add    $0x1892,%ebx
 72c:	6a 01                	push   $0x1
 72e:	e8 ed fd ff ff       	call   520 <sleep@plt>
 733:	8d 83 66 e9 ff ff    	lea    -0x169a(%ebx),%eax
 739:	89 04 24             	mov    %eax,(%esp)
 73c:	e8 ff fd ff ff       	call   540 <puts@plt>
 741:	83 c4 18             	add    $0x18,%esp
 744:	5b                   	pop    %ebx
 745:	c3                   	ret    

00000746 <main>:
 746:	8d 4c 24 04          	lea    0x4(%esp),%ecx
 74a:	83 e4 f0             	and    $0xfffffff0,%esp
 74d:	ff 71 fc             	pushl  -0x4(%ecx)
 750:	55                   	push   %ebp
 751:	89 e5                	mov    %esp,%ebp
 753:	57                   	push   %edi
 754:	56                   	push   %esi
 755:	53                   	push   %ebx
 756:	51                   	push   %ecx
 757:	81 ec 28 02 00 00    	sub    $0x228,%esp
 75d:	e8 8e fe ff ff       	call   5f0 <__x86.get_pc_thunk.bx>
 762:	81 c3 56 18 00 00    	add    $0x1856,%ebx
 768:	8b 01                	mov    (%ecx),%eax
 76a:	8b 51 04             	mov    0x4(%ecx),%edx
 76d:	65 8b 0d 14 00 00 00 	mov    %gs:0x14,%ecx
 774:	89 4d e4             	mov    %ecx,-0x1c(%ebp)
 777:	31 c9                	xor    %ecx,%ecx
 779:	83 f8 02             	cmp    $0x2,%eax
 77c:	74 33                	je     7b1 <main+0x6b>
 77e:	8b 83 3c 00 00 00    	mov    0x3c(%ebx),%eax
 784:	8b 38                	mov    (%eax),%edi
 786:	be 01 00 00 00       	mov    $0x1,%esi
 78b:	8d 83 60 00 00 00    	lea    0x60(%ebx),%eax
 791:	89 85 d4 fd ff ff    	mov    %eax,-0x22c(%ebp)
 797:	8b 83 3c 00 00 00    	mov    0x3c(%ebx),%eax
 79d:	89 85 d0 fd ff ff    	mov    %eax,-0x230(%ebp)
 7a3:	8d 83 71 e9 ff ff    	lea    -0x168f(%ebx),%eax
 7a9:	89 85 cc fd ff ff    	mov    %eax,-0x234(%ebp)
 7af:	eb 39                	jmp    7ea <main+0xa4>
 7b1:	83 ec 08             	sub    $0x8,%esp
 7b4:	8d 83 6f e9 ff ff    	lea    -0x1691(%ebx),%eax
 7ba:	50                   	push   %eax
 7bb:	ff 72 04             	pushl  0x4(%edx)
 7be:	e8 ad fd ff ff       	call   570 <fopen@plt>
 7c3:	89 c7                	mov    %eax,%edi
 7c5:	83 c4 10             	add    $0x10,%esp
 7c8:	eb bc                	jmp    786 <main+0x40>
 7ca:	83 ec 04             	sub    $0x4,%esp
 7cd:	56                   	push   %esi
 7ce:	ff b5 cc fd ff ff    	pushl  -0x234(%ebp)
 7d4:	6a 01                	push   $0x1
 7d6:	e8 a5 fd ff ff       	call   580 <__printf_chk@plt>
 7db:	83 c4 10             	add    $0x10,%esp
 7de:	eb 14                	jmp    7f4 <main+0xae>
 7e0:	e8 08 ff ff ff       	call   6ed <bomb>
 7e5:	83 fe 05             	cmp    $0x5,%esi
 7e8:	7f 57                	jg     841 <main+0xfb>
 7ea:	8b 85 d0 fd ff ff    	mov    -0x230(%ebp),%eax
 7f0:	39 38                	cmp    %edi,(%eax)
 7f2:	74 d6                	je     7ca <main+0x84>
 7f4:	83 ec 04             	sub    $0x4,%esp
 7f7:	57                   	push   %edi
 7f8:	68 00 02 00 00       	push   $0x200
 7fd:	8d 85 e4 fd ff ff    	lea    -0x21c(%ebp),%eax
 803:	50                   	push   %eax
 804:	e8 07 fd ff ff       	call   510 <fgets@plt> ; CALLING FGETS
 809:	83 c4 10             	add    $0x10,%esp
 80c:	85 c0                	test   %eax,%eax
 80e:	74 d5                	je     7e5 <main+0x9f>
 810:	83 ec 04             	sub    $0x4,%esp
 813:	6a 0a                	push   $0xa
 815:	6a 00                	push   $0x0
 817:	8d 85 e4 fd ff ff    	lea    -0x21c(%ebp),%eax
 81d:	50                   	push   %eax
 81e:	e8 6d fd ff ff       	call   590 <strtol@plt>
 823:	01 f0                	add    %esi,%eax
 825:	83 c4 10             	add    $0x10,%esp
 828:	8b 95 d4 fd ff ff    	mov    -0x22c(%ebp),%edx
 82e:	39 02                	cmp    %eax,(%edx) ; CHECKING INPUTS, (EDX) = EAX?
 830:	75 ae                	jne    7e0 <main+0x9a>
 832:	83 ad d4 fd ff ff 04 	subl   $0x4,-0x22c(%ebp)
 839:	83 c6 01             	add    $0x1,%esi
 83c:	83 fe 05             	cmp    $0x5,%esi
 83f:	7e a9                	jle    7ea <main+0xa4>
 841:	e8 d7 fe ff ff       	call   71d <success>
 846:	b8 00 00 00 00       	mov    $0x0,%eax
 84b:	8b 4d e4             	mov    -0x1c(%ebp),%ecx
 84e:	65 33 0d 14 00 00 00 	xor    %gs:0x14,%ecx
 855:	75 0c                	jne    863 <main+0x11d>
 857:	8d 65 f0             	lea    -0x10(%ebp),%esp
 85a:	59                   	pop    %ecx
 85b:	5b                   	pop    %ebx
 85c:	5e                   	pop    %esi
 85d:	5f                   	pop    %edi
 85e:	5d                   	pop    %ebp
 85f:	8d 61 fc             	lea    -0x4(%ecx),%esp
 862:	c3                   	ret    
 863:	e8 78 00 00 00       	call   8e0 <__stack_chk_fail_local>
 868:	66 90                	xchg   %ax,%ax
 86a:	66 90                	xchg   %ax,%ax
 86c:	66 90                	xchg   %ax,%ax
 86e:	66 90                	xchg   %ax,%ax

00000870 <__libc_csu_init>:
 870:	55                   	push   %ebp
 871:	57                   	push   %edi
 872:	56                   	push   %esi
 873:	53                   	push   %ebx
 874:	e8 77 fd ff ff       	call   5f0 <__x86.get_pc_thunk.bx>
 879:	81 c3 3f 17 00 00    	add    $0x173f,%ebx
 87f:	83 ec 0c             	sub    $0xc,%esp
 882:	8b 6c 24 28          	mov    0x28(%esp),%ebp
 886:	8d b3 04 ff ff ff    	lea    -0xfc(%ebx),%esi
 88c:	e8 4b fc ff ff       	call   4dc <_init>
 891:	8d 83 00 ff ff ff    	lea    -0x100(%ebx),%eax
 897:	29 c6                	sub    %eax,%esi
 899:	c1 fe 02             	sar    $0x2,%esi
 89c:	85 f6                	test   %esi,%esi
 89e:	74 25                	je     8c5 <__libc_csu_init+0x55>
 8a0:	31 ff                	xor    %edi,%edi
 8a2:	8d b6 00 00 00 00    	lea    0x0(%esi),%esi
 8a8:	83 ec 04             	sub    $0x4,%esp
 8ab:	55                   	push   %ebp
 8ac:	ff 74 24 2c          	pushl  0x2c(%esp)
 8b0:	ff 74 24 2c          	pushl  0x2c(%esp)
 8b4:	ff 94 bb 00 ff ff ff 	call   *-0x100(%ebx,%edi,4)
 8bb:	83 c7 01             	add    $0x1,%edi
 8be:	83 c4 10             	add    $0x10,%esp
 8c1:	39 fe                	cmp    %edi,%esi
 8c3:	75 e3                	jne    8a8 <__libc_csu_init+0x38>
 8c5:	83 c4 0c             	add    $0xc,%esp
 8c8:	5b                   	pop    %ebx
 8c9:	5e                   	pop    %esi
 8ca:	5f                   	pop    %edi
 8cb:	5d                   	pop    %ebp
 8cc:	c3                   	ret    
 8cd:	8d 76 00             	lea    0x0(%esi),%esi

000008d0 <__libc_csu_fini>:
 8d0:	f3 c3                	repz ret 
 8d2:	66 90                	xchg   %ax,%ax
 8d4:	66 90                	xchg   %ax,%ax
 8d6:	66 90                	xchg   %ax,%ax
 8d8:	66 90                	xchg   %ax,%ax
 8da:	66 90                	xchg   %ax,%ax
 8dc:	66 90                	xchg   %ax,%ax
 8de:	66 90                	xchg   %ax,%ax

000008e0 <__stack_chk_fail_local>:
 8e0:	53                   	push   %ebx
 8e1:	e8 0a fd ff ff       	call   5f0 <__x86.get_pc_thunk.bx>
 8e6:	81 c3 d2 16 00 00    	add    $0x16d2,%ebx
 8ec:	83 ec 08             	sub    $0x8,%esp
 8ef:	e8 3c fc ff ff       	call   530 <__stack_chk_fail@plt>

Disassembly of section .fini:

000008f4 <_fini>:
 8f4:	53                   	push   %ebx
 8f5:	83 ec 08             	sub    $0x8,%esp
 8f8:	e8 f3 fc ff ff       	call   5f0 <__x86.get_pc_thunk.bx>
 8fd:	81 c3 bb 16 00 00    	add    $0x16bb,%ebx
 903:	83 c4 08             	add    $0x8,%esp
 906:	5b                   	pop    %ebx
 907:	c3                   	ret    
